; Function Attrs: mustprogress uwtable
define noundef range(i32 1, 0) i32 @_ZN5arrow8internal10ThreadPool15DefaultCapacityEv() local_unnamed_addr #3 align 2 personality ptr @__gxx_personality_v0 {
  %1 = alloca %"class.arrow::util::ArrowLog", align 8
  %2 = tail call fastcc noundef i32 @_ZN5arrow8internalL14ParseOMPEnvVarEPKc(ptr noundef nonnull @.str.4)
  %3 = icmp eq i32 %2, 0
  br i1 %3, label %4, label %6

4:                                                ; preds = %0
  %5 = tail call noundef i32 @_ZNSt6thread20hardware_concurrencyEv() #33
  br label %6

6:                                                ; preds = %4, %0
  %.0 = phi i32 [ %5, %4 ], [ %2, %0 ]
  %7 = tail call fastcc noundef i32 @_ZN5arrow8internalL14ParseOMPEnvVarEPKc(ptr noundef nonnull @.str.5)
  %8 = icmp eq i32 %7, 0
  %9 = icmp slt i32 %.0, %7
  %or.cond = or i1 %8, %9
  br i1 %or.cond, label %select.unfold, label %.thread

select.unfold:                                    ; preds = %6
  %10 = icmp eq i32 %.0, 0
  br i1 %10, label %11, label %.thread

11:                                               ; preds = %select.unfold
  call void @llvm.lifetime.start.p0(i64 24, ptr nonnull %1) #33
  call void @_ZN5arrow4util8ArrowLogC1EPKciNS0_13ArrowLogLevelE(ptr noundef nonnull align 8 dereferenceable(17) %1, ptr noundef nonnull @.str.6, i32 noundef 743, i32 noundef 1)
  %12 = load ptr, ptr %1, align 8, !tbaa !3
  %13 = getelementptr inbounds nuw i8, ptr %12, i64 16
  %14 = load ptr, ptr %13, align 8
  %15 = invoke noundef zeroext i1 %14(ptr noundef nonnull align 8 dereferenceable(8) %1)
          to label %.noexc unwind label %22

.noexc:                                           ; preds = %11
  br i1 %15, label %16, label %_ZN5arrow4util12ArrowLogBaselsIA87_cEERS1_RKT_.exit

16:                                               ; preds = %.noexc
  %17 = load ptr, ptr %1, align 8, !tbaa !3
  %18 = getelementptr inbounds nuw i8, ptr %17, i64 24
  %19 = load ptr, ptr %18, align 8
  %20 = invoke noundef nonnull align 8 dereferenceable(8) ptr %19(ptr noundef nonnull align 8 dereferenceable(8) %1)
          to label %.noexc1 unwind label %22

.noexc1:                                          ; preds = %16
  %21 = invoke noundef nonnull align 8 dereferenceable(8) ptr @_ZSt16__ostream_insertIcSt11char_traitsIcEERSt13basic_ostreamIT_T0_ES6_PKS3_l(ptr noundef nonnull align 8 dereferenceable(8) %20, ptr noundef nonnull @.str.7, i64 noundef 86)
          to label %_ZN5arrow4util12ArrowLogBaselsIA87_cEERS1_RKT_.exit unwind label %22

_ZN5arrow4util12ArrowLogBaselsIA87_cEERS1_RKT_.exit: ; preds = %.noexc, %.noexc1
  call void @_ZN5arrow4util8ArrowLogD1Ev(ptr noundef nonnull align 8 dereferenceable(17) %1) #33
  call void @llvm.lifetime.end.p0(i64 24, ptr nonnull %1) #33
  br label %.thread

22:                                               ; preds = %.noexc1, %16, %11
  %23 = landingpad { ptr, i32 }
          cleanup
  call void @_ZN5arrow4util8ArrowLogD1Ev(ptr noundef nonnull align 8 dereferenceable(17) %1) #33
  call void @llvm.lifetime.end.p0(i64 24, ptr nonnull %1) #33
  resume { ptr, i32 } %23

.thread:                                          ; preds = %6, %_ZN5arrow4util12ArrowLogBaselsIA87_cEERS1_RKT_.exit, %select.unfold
  %.2 = phi i32 [ 4, %_ZN5arrow4util12ArrowLogBaselsIA87_cEERS1_RKT_.exit ], [ %.0, %select.unfold ], [ %7, %6 ]
  ret i32 %.2
}